; Function Attrs: nounwind uwtable
define hidden ptr @SDL_GetProcessInput_REAL(ptr noundef readonly captures(address_is_null) %0) local_unnamed_addr #0 {
  %.not = icmp eq ptr %0, null
  br i1 %.not, label %2, label %4

2:                                                ; preds = %1
  %3 = tail call zeroext i1 (ptr, ...) @SDL_SetError_REAL(ptr noundef nonnull @.str, ptr noundef nonnull @.str.8) #3
  br label %10

4:                                                ; preds = %1
  %5 = getelementptr inbounds nuw i8, ptr %0, i64 8
  %6 = load i32, ptr %5, align 8
  %7 = tail call ptr @SDL_GetPointerProperty_REAL(i32 noundef %6, ptr noundef nonnull @.str.11, ptr noundef null) #3
  %.not7 = icmp eq ptr %7, null
  br i1 %.not7, label %8, label %10

8:                                                ; preds = %4
  %9 = tail call zeroext i1 (ptr, ...) @SDL_SetError_REAL(ptr noundef nonnull @.str.12) #3
  br label %10

10:                                               ; preds = %8, %4, %2
  %.0 = phi ptr [ null, %2 ], [ null, %8 ], [ %7, %4 ]
  ret ptr %.0
}